Certificate:
    Data:
        Version: 1 (0x0)
        Serial Number: 19 (0x13)
    Signature Algorithm: sha256WithRSAEncryption
        Issuer: O=NOVA ROOT, L=Mountain View, ST=California, C=US
        Validity
            Not Before: Oct 30 02:15:42 2015 GMT
            Not After : Oct 29 02:15:42 2016 GMT
        Subject: C=US, ST=California, O=OpenStack, OU=NovaDev, CN=d7edeea4e4c2466d-03887533f55c4d86-2015-10-30T02:15:42Z
        Subject Public Key Info:
            Public Key Algorithm: rsaEncryption
                Public-Key: (2048 bit)
                Modulus:
                    00:cb:73:e4:1a:d5:28:e6:55:a0:78:c6:36:71:85:
                    b4:31:1f:66:a5:17:4b:8a:b1:0d:56:6f:0f:ae:06:
                    fa:2d:f0:45:66:0b:73:8c:5a:58:8b:48:b5:23:f9:
                    3c:58:18:90:f7:95:d9:7e:a6:24:43:23:ab:96:f3:
                    13:2b:79:e0:38:e3:0f:94:3a:67:66:d7:e5:8a:0e:
                    ad:d8:a3:f1:ac:1d:a3:75:66:e1:43:a0:0b:14:ff:
                    6b:14:d2:39:9a:e4:50:d2:17:e6:67:78:1c:6e:d2:
                    99:d7:75:0f:be:38:23:42:20:39:2e:65:27:67:3f:
                    d0:b9:41:b5:89:b7:2e:62:75:a6:7b:64:06:b4:0e:
                    7b:e0:53:9e:8f:fb:2b:35:1d:c2:4d:40:77:ab:55:
                    b2:45:8b:07:d0:de:a4:2b:bb:56:ca:30:2d:95:e6:
                    58:be:b8:d6:6e:61:e0:92:58:e6:e8:e1:d6:c1:19:
                    20:4a:60:0c:c5:11:f4:21:2e:b5:17:91:a6:ae:4e:
                    6f:e8:51:e7:cf:eb:76:d8:d8:c6:90:87:02:78:05:
                    9f:ba:cb:f4:64:0c:3e:2d:4d:bd:03:10:46:83:75:
                    4f:45:91:0f:1a:35:26:bc:18:8e:88:e2:d6:17:ee:
                    c7:20:0f:a2:44:21:57:a1:b0:ce:ee:77:59:e4:33:
                    3e:d1
                Exponent: 65537 (0x10001)
    Signature Algorithm: sha256WithRSAEncryption
         74:7e:8e:42:a6:da:85:08:cd:06:b9:27:2c:98:94:0f:5a:53:
         f0:ac:61:80:a0:78:6f:03:4d:d4:26:b5:a9:e1:98:24:8f:09:
         09:06:13:dc:3c:b7:b0:cf:3b:8d:d1:47:78:77:f6:6b:9f:6f:
         27:bb:b9:e2:f4:4c:a9:d5:3c:22:07:8d:71:de:15:c3:06:90:
         c3:83:86:fd:5a:2e:ee:88:b7:b2:b1:51:99:cb:b7:6b:f3:ef:
         f6:40:15:a6:28:7e:fe:90:15:16:20:e2:a7:89:8f:b6:1e:9e:
         a1:7f:ef:64:c4:be:6a:d9:f3:76:49:2f:21:36:be:ed:ef:72:
         36:38
-----BEGIN CERTIFICATE-----
MIICyzCCAjQCARMwDQYJKoZIhvcNAQELBQAwTjESMBAGA1UEChMJTk9WQSBST09U
MRYwFAYDVQQHEw1Nb3VudGFpbiBWaWV3MRMwEQYDVQQIEwpDYWxpZm9ybmlhMQsw
CQYDVQQGEwJVUzAeFw0xNTEwMzAwMjE1NDJaFw0xNjEwMjkwMjE1NDJaMIGJMQsw
CQYDVQQGEwJVUzETMBEGA1UECAwKQ2FsaWZvcm5pYTESMBAGA1UECgwJT3BlblN0
YWNrMRAwDgYDVQQLDAdOb3ZhRGV2MT8wPQYDVQQDDDZkN2VkZWVhNGU0YzI0NjZk
LTAzODg3NTMzZjU1YzRkODYtMjAxNS0xMC0zMFQwMjoxNTo0MlowggEiMA0GCSqG
SIb3DQEBAQUAA4IBDwAwggEKAoIBAQDLc+Qa1SjmVaB4xjZxhbQxH2alF0uKsQ1W
bw+uBvot8EVmC3OMWliLSLUj+TxYGJD3ldl+piRDI6uW8xMreeA44w+UOmdm1+WK
Dq3Yo/GsHaN1ZuFDoAsU/2sU0jma5FDSF+ZneBxu0pnXdQ++OCNCIDkuZSdnP9C5
QbWJty5idaZ7ZAa0DnvgU56P+ys1HcJNQHerVbJFiwfQ3qQru1bKMC2V5li+uNZu
YeCSWObo4dbBGSBKYAzFEfQhLrUXkaauTm/oUefP63bY2MaQhwJ4BZ+6y/RkDD4t
Tb0DEEaDdU9FkQ8aNSa8GI6I4tYX7scgD6JEIVehsM7ud1nkMz7RAgMBAAEwDQYJ
KoZIhvcNAQELBQADgYEAdH6OQqbahQjNBrknLJiUD1pT8KxhgKB4bwNN1Ca1qeGY
JI8JCQYT3Dy3sM87jdFHeHf2a59vJ7u54vRMqdU8IgeNcd4VwwaQw4OG/Vou7oi3
srFRmcu3a/Pv9kAVpih+/pAVFiDip4mPth6eoX/vZMS+atnzdkkvITa+7e9yNjg=
-----END CERTIFICATE-----
