Certificate:
    Data:
        Version: 1 (0x0)
        Serial Number: 20 (0x14)
    Signature Algorithm: sha256WithRSAEncryption
        Issuer: O=NOVA ROOT, L=Mountain View, ST=California, C=US
        Validity
            Not Before: Oct 30 02:15:47 2015 GMT
            Not After : Oct 29 02:15:47 2016 GMT
        Subject: C=US, ST=California, O=OpenStack, OU=NovaDev, CN=d91d519f201c46ad-0f77d260440f4ad0-2015-10-30T02:15:46Z
        Subject Public Key Info:
            Public Key Algorithm: rsaEncryption
                Public-Key: (2048 bit)
                Modulus:
                    00:ee:2a:29:ac:81:9c:a6:80:12:56:86:c3:6f:f6:
                    45:9a:5c:83:15:ec:e1:a2:66:d5:ce:d4:7c:d4:83:
                    7e:63:72:f9:42:b8:ad:b5:93:38:b9:44:a8:cd:09:
                    41:8e:36:ca:b3:a5:47:fc:3f:fe:9b:2c:64:8d:46:
                    a6:65:ac:1e:7f:89:7b:27:98:ee:84:8d:ab:55:c4:
                    fe:e9:1f:2e:0b:54:b1:e5:21:ad:9f:40:c2:cb:30:
                    14:a7:ca:27:bd:16:5a:e5:c0:c6:d2:65:57:92:08:
                    dd:44:11:f5:2f:44:8d:a3:12:a0:c0:4c:65:70:67:
                    4b:45:07:ae:15:3c:39:76:24:71:3f:91:e2:ca:60:
                    9d:bb:8e:a6:e6:7f:2c:89:a6:f9:e0:80:d9:1e:90:
                    0c:38:a0:94:b2:76:8f:86:93:e3:c1:d4:81:19:ed:
                    02:7e:fc:73:a0:cf:ff:02:30:59:e2:ef:ea:7b:9a:
                    90:45:19:59:27:5b:0b:45:0c:b8:20:99:35:36:54:
                    c1:b1:ed:4e:77:28:da:ba:48:99:4b:58:c0:63:43:
                    28:59:a7:c1:e3:a2:c0:c0:c3:ab:08:70:1b:6e:87:
                    ca:65:aa:86:b9:2e:9c:45:48:64:e2:45:1d:6a:5b:
                    1b:6b:b3:e8:5a:43:b8:74:11:34:85:d6:80:72:85:
                    9f:1f
                Exponent: 65537 (0x10001)
    Signature Algorithm: sha256WithRSAEncryption
         3d:23:f0:2d:b5:1d:09:4f:17:2d:3a:97:30:b3:34:97:7f:36:
         b1:e3:57:3e:5b:72:a1:7c:b1:35:61:1c:ae:19:e0:a2:e9:29:
         a6:29:96:33:29:22:6e:19:35:66:67:1d:00:f8:2d:84:8e:0f:
         08:06:d1:9c:f4:33:1c:f7:08:1e:3d:36:bb:1d:8e:0b:e7:b4:
         39:40:6e:bc:df:4a:6f:82:bc:f7:91:ec:92:02:0b:96:f5:79:
         97:89:11:29:f0:f3:69:cb:e5:f3:2b:e0:b9:b0:e7:32:18:75:
         83:44:13:fb:08:35:53:3f:ab:85:6d:74:1c:ce:7d:67:0a:37:
         a5:14
-----BEGIN CERTIFICATE-----
MIICyzCCAjQCARQwDQYJKoZIhvcNAQELBQAwTjESMBAGA1UEChMJTk9WQSBST09U
MRYwFAYDVQQHEw1Nb3VudGFpbiBWaWV3MRMwEQYDVQQIEwpDYWxpZm9ybmlhMQsw
CQYDVQQGEwJVUzAeFw0xNTEwMzAwMjE1NDdaFw0xNjEwMjkwMjE1NDdaMIGJMQsw
CQYDVQQGEwJVUzETMBEGA1UECAwKQ2FsaWZvcm5pYTESMBAGA1UECgwJT3BlblN0
YWNrMRAwDgYDVQQLDAdOb3ZhRGV2MT8wPQYDVQQDDDZkOTFkNTE5ZjIwMWM0NmFk
LTBmNzdkMjYwNDQwZjRhZDAtMjAxNS0xMC0zMFQwMjoxNTo0NlowggEiMA0GCSqG
SIb3DQEBAQUAA4IBDwAwggEKAoIBAQDuKimsgZymgBJWhsNv9kWaXIMV7OGiZtXO
1HzUg35jcvlCuK21kzi5RKjNCUGONsqzpUf8P/6bLGSNRqZlrB5/iXsnmO6EjatV
xP7pHy4LVLHlIa2fQMLLMBSnyie9FlrlwMbSZVeSCN1EEfUvRI2jEqDATGVwZ0tF
B64VPDl2JHE/keLKYJ27jqbmfyyJpvnggNkekAw4oJSydo+Gk+PB1IEZ7QJ+/HOg
z/8CMFni7+p7mpBFGVknWwtFDLggmTU2VMGx7U53KNq6SJlLWMBjQyhZp8HjosDA
w6sIcBtuh8plqoa5LpxFSGTiRR1qWxtrs+haQ7h0ETSF1oByhZ8fAgMBAAEwDQYJ
KoZIhvcNAQELBQADgYEAPSPwLbUdCU8XLTqXMLM0l382seNXPltyoXyxNWEcrhng
oukppimWMykibhk1ZmcdAPgthI4PCAbRnPQzHPcIHj02ux2OC+e0OUBuvN9Kb4K8
95HskgILlvV5l4kRKfDzacvl8yvgubDnMhh1g0QT+wg1Uz+rhW10HM59Zwo3pRQ=
-----END CERTIFICATE-----
