Certificate:
    Data:
        Version: 1 (0x0)
        Serial Number: 17 (0x11)
    Signature Algorithm: sha256WithRSAEncryption
        Issuer: O=NOVA ROOT, L=Mountain View, ST=California, C=US
        Validity
            Not Before: Oct 30 02:15:33 2015 GMT
            Not After : Oct 29 02:15:33 2016 GMT
        Subject: C=US, ST=California, O=OpenStack, OU=NovaDev, CN=5b4df4cc980d4baa-0f77d260440f4ad0-2015-10-30T02:15:33Z
        Subject Public Key Info:
            Public Key Algorithm: rsaEncryption
                Public-Key: (2048 bit)
                Modulus:
                    00:cb:0f:9b:ce:87:34:2f:41:4a:27:73:64:bf:7a:
                    48:72:cd:4a:7e:22:b4:b3:a1:fe:ac:f1:73:54:05:
                    94:ba:bf:b2:ea:4f:e5:4b:3b:39:02:1f:85:71:25:
                    57:0e:9f:2a:f9:9b:77:18:ba:92:c9:f6:09:f0:0d:
                    b0:40:cd:16:f6:d0:ee:07:58:4b:33:03:96:e2:88:
                    62:c8:85:61:2e:ea:d9:b9:32:2f:ca:b1:7f:b4:db:
                    f5:42:55:96:ef:ea:af:4c:55:ab:a3:5a:41:85:fb:
                    13:3b:33:12:30:12:3b:3c:72:71:f8:b1:07:1e:e1:
                    5f:c1:33:02:af:2a:c6:bb:21:63:97:a7:a3:82:ce:
                    a8:00:73:32:28:93:fd:e3:0b:fd:29:d3:fe:a8:12:
                    27:d4:e6:87:03:68:50:90:f0:76:0c:79:fb:e3:b6:
                    7b:34:ae:8b:7f:50:9e:d5:7b:6b:78:f3:0d:dd:aa:
                    cd:41:48:46:aa:be:3a:79:52:33:9e:29:a0:6f:bc:
                    24:df:08:fb:a3:c9:dc:f5:8a:d8:0b:52:28:07:49:
                    34:fc:39:72:c1:37:f4:ee:dd:06:4d:38:07:05:18:
                    de:9e:3c:32:eb:0f:52:99:3a:76:8f:45:e0:4f:d8:
                    28:09:fd:d1:5f:cb:3c:69:90:fe:62:c7:19:68:c3:
                    aa:05
                Exponent: 65537 (0x10001)
    Signature Algorithm: sha256WithRSAEncryption
         56:52:92:3f:e7:3e:82:dc:bb:e4:67:c8:c1:8c:04:1d:4b:68:
         85:e6:e6:18:d1:45:be:8f:78:5f:38:b1:a2:5b:67:65:6b:4a:
         d6:44:fd:3e:3e:5d:78:cd:01:15:60:e1:20:20:8e:b9:bb:b0:
         6c:64:ff:ee:fd:1c:b3:91:0e:b1:7a:62:7b:22:b7:1a:b3:03:
         d2:c6:4d:ca:ef:98:34:d5:be:d1:1a:54:f8:58:64:c6:36:42:
         80:f1:20:b9:84:f6:32:e1:1c:87:d7:8b:ac:fd:9a:b6:aa:f1:
         13:22:dd:39:81:16:b2:fc:3f:13:98:d1:b2:b9:e4:6b:1a:95:
         84:12
-----BEGIN CERTIFICATE-----
MIICyzCCAjQCAREwDQYJKoZIhvcNAQELBQAwTjESMBAGA1UEChMJTk9WQSBST09U
MRYwFAYDVQQHEw1Nb3VudGFpbiBWaWV3MRMwEQYDVQQIEwpDYWxpZm9ybmlhMQsw
CQYDVQQGEwJVUzAeFw0xNTEwMzAwMjE1MzNaFw0xNjEwMjkwMjE1MzNaMIGJMQsw
CQYDVQQGEwJVUzETMBEGA1UECAwKQ2FsaWZvcm5pYTESMBAGA1UECgwJT3BlblN0
YWNrMRAwDgYDVQQLDAdOb3ZhRGV2MT8wPQYDVQQDDDY1YjRkZjRjYzk4MGQ0YmFh
LTBmNzdkMjYwNDQwZjRhZDAtMjAxNS0xMC0zMFQwMjoxNTozM1owggEiMA0GCSqG
SIb3DQEBAQUAA4IBDwAwggEKAoIBAQDLD5vOhzQvQUonc2S/ekhyzUp+IrSzof6s
8XNUBZS6v7LqT+VLOzkCH4VxJVcOnyr5m3cYupLJ9gnwDbBAzRb20O4HWEszA5bi
iGLIhWEu6tm5Mi/KsX+02/VCVZbv6q9MVaujWkGF+xM7MxIwEjs8cnH4sQce4V/B
MwKvKsa7IWOXp6OCzqgAczIok/3jC/0p0/6oEifU5ocDaFCQ8HYMefvjtns0rot/
UJ7Ve2t48w3dqs1BSEaqvjp5UjOeKaBvvCTfCPujydz1itgLUigHSTT8OXLBN/Tu
3QZNOAcFGN6ePDLrD1KZOnaPReBP2CgJ/dFfyzxpkP5ixxlow6oFAgMBAAEwDQYJ
KoZIhvcNAQELBQADgYEAVlKSP+c+gty75GfIwYwEHUtohebmGNFFvo94Xzixoltn
ZWtK1kT9Pj5deM0BFWDhICCOubuwbGT/7v0cs5EOsXpieyK3GrMD0sZNyu+YNNW+
0RpU+FhkxjZCgPEguYT2MuEch9eLrP2atqrxEyLdOYEWsvw/E5jRsrnkaxqVhBI=
-----END CERTIFICATE-----
