Certificate:
    Data:
        Version: 1 (0x0)
        Serial Number: 16 (0x10)
    Signature Algorithm: sha256WithRSAEncryption
        Issuer: O=NOVA ROOT, L=Mountain View, ST=California, C=US
        Validity
            Not Before: Oct 30 02:15:29 2015 GMT
            Not After : Oct 29 02:15:29 2016 GMT
        Subject: C=US, ST=California, O=OpenStack, OU=NovaDev, CN=5b4df4cc980d4baa-de711a326ffe4089-2015-10-30T02:15:29Z
        Subject Public Key Info:
            Public Key Algorithm: rsaEncryption
                Public-Key: (2048 bit)
                Modulus:
                    00:bd:75:1a:80:8a:35:27:eb:de:cf:fa:ea:a1:68:
                    4c:f7:59:e1:81:80:92:ba:f9:5a:63:bd:7a:7e:4f:
                    0b:41:fa:e5:87:46:54:82:3c:d0:18:e0:31:40:e6:
                    86:0f:39:24:d3:cb:48:6d:ef:37:87:48:9d:a9:ae:
                    ef:5e:82:58:41:2a:37:c3:57:ae:92:a9:09:60:41:
                    34:47:32:90:93:41:ec:bd:21:82:c6:35:5c:5c:61:
                    a3:1c:5c:1b:98:47:69:6d:49:b4:ba:bb:27:a6:ed:
                    79:f2:c5:5e:7a:73:42:cb:ae:06:16:8b:07:eb:f3:
                    af:ac:08:86:84:7e:48:d3:10:6e:14:ac:b6:a8:f3:
                    9f:ed:1e:d7:9b:4a:26:ea:7a:6d:37:04:fa:7a:3c:
                    7a:d7:53:f5:21:39:26:9c:80:3b:4d:36:50:18:69:
                    65:f3:b3:e0:fe:01:c5:d6:3d:31:40:e5:04:23:68:
                    64:5d:fb:5e:e3:be:42:fb:3f:59:9c:b8:ef:0a:2d:
                    92:c7:cb:5b:9c:ed:45:a0:5d:0f:e6:72:bd:04:40:
                    5e:9c:f3:8f:fd:5c:83:2c:b4:d5:8a:06:3b:23:62:
                    8b:f7:8d:52:11:e4:c3:d0:f1:93:d4:48:8f:97:46:
                    d5:65:1f:bc:25:83:df:2f:ab:c9:3b:d6:ba:51:d1:
                    65:55
                Exponent: 65537 (0x10001)
    Signature Algorithm: sha256WithRSAEncryption
         00:32:b0:fe:9e:6d:4e:bc:90:a7:e2:f9:64:2c:ec:43:d8:a5:
         fb:3b:49:93:bb:8e:7c:75:3f:8c:dc:45:e2:b7:fe:df:9b:9d:
         51:61:ca:1f:aa:f0:cf:05:d9:89:5f:7c:19:21:99:40:ba:00:
         a7:b7:5b:b2:a1:16:0c:a5:bd:50:4b:d9:ed:88:92:30:d3:92:
         41:de:ba:e3:0d:70:6b:92:66:33:f3:31:77:1f:4e:84:cd:f5:
         df:87:9e:d6:a6:f4:95:cb:ea:b7:60:27:51:4b:57:08:b9:af:
         92:2b:10:ac:81:96:04:86:1d:6c:c0:62:ea:34:80:ae:5c:2b:
         70:5c
-----BEGIN CERTIFICATE-----
MIICyzCCAjQCARAwDQYJKoZIhvcNAQELBQAwTjESMBAGA1UEChMJTk9WQSBST09U
MRYwFAYDVQQHEw1Nb3VudGFpbiBWaWV3MRMwEQYDVQQIEwpDYWxpZm9ybmlhMQsw
CQYDVQQGEwJVUzAeFw0xNTEwMzAwMjE1MjlaFw0xNjEwMjkwMjE1MjlaMIGJMQsw
CQYDVQQGEwJVUzETMBEGA1UECAwKQ2FsaWZvcm5pYTESMBAGA1UECgwJT3BlblN0
YWNrMRAwDgYDVQQLDAdOb3ZhRGV2MT8wPQYDVQQDDDY1YjRkZjRjYzk4MGQ0YmFh
LWRlNzExYTMyNmZmZTQwODktMjAxNS0xMC0zMFQwMjoxNToyOVowggEiMA0GCSqG
SIb3DQEBAQUAA4IBDwAwggEKAoIBAQC9dRqAijUn697P+uqhaEz3WeGBgJK6+Vpj
vXp+TwtB+uWHRlSCPNAY4DFA5oYPOSTTy0ht7zeHSJ2pru9eglhBKjfDV66SqQlg
QTRHMpCTQey9IYLGNVxcYaMcXBuYR2ltSbS6uyem7XnyxV56c0LLrgYWiwfr86+s
CIaEfkjTEG4UrLao85/tHtebSibqem03BPp6PHrXU/UhOSacgDtNNlAYaWXzs+D+
AcXWPTFA5QQjaGRd+17jvkL7P1mcuO8KLZLHy1uc7UWgXQ/mcr0EQF6c84/9XIMs
tNWKBjsjYov3jVIR5MPQ8ZPUSI+XRtVlH7wlg98vq8k71rpR0WVVAgMBAAEwDQYJ
KoZIhvcNAQELBQADgYEAADKw/p5tTryQp+L5ZCzsQ9il+ztJk7uOfHU/jNxF4rf+
35udUWHKH6rwzwXZiV98GSGZQLoAp7dbsqEWDKW9UEvZ7YiSMNOSQd664w1wa5Jm
M/Mxdx9OhM3134ee1qb0lcvqt2AnUUtXCLmvkisQrIGWBIYdbMBi6jSArlwrcFw=
-----END CERTIFICATE-----
