Certificate:
    Data:
        Version: 1 (0x0)
        Serial Number: 18 (0x12)
    Signature Algorithm: sha256WithRSAEncryption
        Issuer: O=NOVA ROOT, L=Mountain View, ST=California, C=US
        Validity
            Not Before: Oct 30 02:15:37 2015 GMT
            Not After : Oct 29 02:15:37 2016 GMT
        Subject: C=US, ST=California, O=OpenStack, OU=NovaDev, CN=acfaa077a295457b-de711a326ffe4089-2015-10-30T02:15:37Z
        Subject Public Key Info:
            Public Key Algorithm: rsaEncryption
                Public-Key: (2048 bit)
                Modulus:
                    00:a8:b7:c0:fa:9c:88:e2:30:27:08:7d:a3:22:06:
                    42:ae:68:4d:e2:14:79:1f:85:9b:5b:f2:4b:ba:f3:
                    bc:fe:09:78:71:5d:52:4a:d8:3a:9a:7c:5a:dd:fc:
                    0c:1f:16:1b:69:2f:ef:03:b8:5e:c0:a5:0f:be:76:
                    8e:67:ff:73:f5:67:2e:ce:d7:df:65:82:5c:99:de:
                    25:d3:12:e0:45:f8:6b:38:53:f5:6a:1e:83:e2:53:
                    a6:d2:2d:de:9f:a8:bf:36:66:fd:e7:94:7f:b4:f9:
                    d6:cb:13:0c:e2:7c:55:6d:53:16:85:af:1a:a0:7a:
                    fe:53:31:5b:12:62:17:40:43:9c:6f:6c:5f:36:23:
                    b8:ec:dd:5e:49:d5:9a:7f:6b:8b:e6:7d:e2:9f:ee:
                    d7:af:c5:74:58:04:4d:49:1b:a5:0c:ea:b8:2a:99:
                    6a:95:28:db:e4:2e:cb:7d:74:29:eb:16:08:cf:1e:
                    91:91:78:5f:f5:42:7b:85:a8:d7:08:30:14:af:bc:
                    20:34:b9:61:39:1f:d6:40:23:08:b7:d6:4c:5f:77:
                    b7:d5:66:fd:85:52:1c:86:40:42:17:14:c2:5f:3c:
                    da:bb:ca:d4:f1:d2:6c:fc:97:de:0c:f8:b3:0f:4a:
                    20:70:16:2c:d8:54:2f:8b:b6:79:2b:7c:ee:5d:e7:
                    10:5d
                Exponent: 65537 (0x10001)
    Signature Algorithm: sha256WithRSAEncryption
         6e:0d:dc:ba:ba:f4:6b:19:5f:21:94:59:a1:d7:4d:f4:b4:bd:
         9e:77:ee:29:cc:70:c5:9c:37:ff:55:14:11:8f:c8:ea:3f:00:
         9f:9c:ba:11:c1:34:d0:c3:17:7c:2b:a8:51:49:81:c7:df:dc:
         ce:0c:8a:a4:fa:c2:c9:70:be:ed:95:d6:22:c1:e9:2a:2e:9f:
         21:f5:96:cd:f5:e4:8b:d8:21:f5:43:0e:6d:f1:17:cf:84:e8:
         e3:fe:3d:3a:68:6f:94:4c:b2:92:40:09:a3:d3:8d:70:28:e2:
         e5:4b:24:da:af:cc:cc:9f:37:55:59:07:b2:1c:76:f5:f4:9b:
         c2:45
-----BEGIN CERTIFICATE-----
MIICyzCCAjQCARIwDQYJKoZIhvcNAQELBQAwTjESMBAGA1UEChMJTk9WQSBST09U
MRYwFAYDVQQHEw1Nb3VudGFpbiBWaWV3MRMwEQYDVQQIEwpDYWxpZm9ybmlhMQsw
CQYDVQQGEwJVUzAeFw0xNTEwMzAwMjE1MzdaFw0xNjEwMjkwMjE1MzdaMIGJMQsw
CQYDVQQGEwJVUzETMBEGA1UECAwKQ2FsaWZvcm5pYTESMBAGA1UECgwJT3BlblN0
YWNrMRAwDgYDVQQLDAdOb3ZhRGV2MT8wPQYDVQQDDDZhY2ZhYTA3N2EyOTU0NTdi
LWRlNzExYTMyNmZmZTQwODktMjAxNS0xMC0zMFQwMjoxNTozN1owggEiMA0GCSqG
SIb3DQEBAQUAA4IBDwAwggEKAoIBAQCot8D6nIjiMCcIfaMiBkKuaE3iFHkfhZtb
8ku687z+CXhxXVJK2DqafFrd/AwfFhtpL+8DuF7ApQ++do5n/3P1Zy7O199lglyZ
3iXTEuBF+Gs4U/VqHoPiU6bSLd6fqL82Zv3nlH+0+dbLEwzifFVtUxaFrxqgev5T
MVsSYhdAQ5xvbF82I7js3V5J1Zp/a4vmfeKf7tevxXRYBE1JG6UM6rgqmWqVKNvk
Lst9dCnrFgjPHpGReF/1QnuFqNcIMBSvvCA0uWE5H9ZAIwi31kxfd7fVZv2FUhyG
QEIXFMJfPNq7ytTx0mz8l94M+LMPSiBwFizYVC+LtnkrfO5d5xBdAgMBAAEwDQYJ
KoZIhvcNAQELBQADgYEAbg3curr0axlfIZRZoddN9LS9nnfuKcxwxZw3/1UUEY/I
6j8An5y6EcE00MMXfCuoUUmBx9/czgyKpPrCyXC+7ZXWIsHpKi6fIfWWzfXki9gh
9UMObfEXz4To4/49OmhvlEyykkAJo9ONcCji5Usk2q/MzJ83VVkHshx29fSbwkU=
-----END CERTIFICATE-----
